target datalayout = "e-m:e-p270:32:32-p271:32:32-p272:64:64-i64:64-i128:128-f80:128-n8:16:32:64-S128"
target triple = "x86_64-unknown-linux-gnu"

%"class.std::optional.20" = type { %"struct.std::_Optional_base.21" }
%"struct.std::_Optional_base.21" = type { %"struct.std::_Optional_payload.23" }
%"struct.std::_Optional_payload.23" = type { %"struct.std::_Optional_payload_base.base.25", [7 x i8] }
%"struct.std::_Optional_payload_base.base.25" = type <{ %"union.std::_Optional_payload_base<grpc_core::chttp2::TransportFlowControl::Stats>::_Storage", i8 }>
%"union.std::_Optional_payload_base<grpc_core::chttp2::TransportFlowControl::Stats>::_Storage" = type { %"struct.grpc_core::chttp2::TransportFlowControl::Stats" }
%"struct.grpc_core::chttp2::TransportFlowControl::Stats" = type { i64, i64, i64, i32, i32, i32, i64, i64, i64, i64, i64, double }
%"class.std::optional.28" = type { %"struct.std::_Optional_base.29" }
%"struct.std::_Optional_base.29" = type { %"struct.std::_Optional_payload.31" }
%"struct.std::_Optional_payload.31" = type { %"struct.std::_Optional_payload_base.base.41", [7 x i8] }
%"struct.std::_Optional_payload_base.base.41" = type <{ %"union.std::_Optional_payload_base<grpc_core::chttp2::StreamFlowControl::Stats>::_Storage", i8 }>
%"union.std::_Optional_payload_base<grpc_core::chttp2::StreamFlowControl::Stats>::_Storage" = type { %"struct.grpc_core::chttp2::StreamFlowControl::Stats" }
%"struct.grpc_core::chttp2::StreamFlowControl::Stats" = type { i64, i64, i64, %"class.std::optional.33" }
%"class.std::optional.33" = type { %"struct.std::_Optional_base.34" }
%"struct.std::_Optional_base.34" = type { %"struct.std::_Optional_payload.36" }
%"struct.std::_Optional_payload.36" = type { %"struct.std::_Optional_payload_base.base.38", [7 x i8] }
%"struct.std::_Optional_payload_base.base.38" = type <{ %"union.std::_Optional_payload_base<long>::_Storage", i8 }>
%"union.std::_Optional_payload_base<long>::_Storage" = type { i64 }
%"class.grpc_core::Timestamp" = type { i64 }
%"class.grpc_core::HttpAnnotation" = type { %"class.grpc_core::CallTracerAnnotationInterface::Annotation.base", i8, %"class.grpc_core::Timestamp", %"class.std::optional.20", %"class.std::optional.28" }
%"class.grpc_core::CallTracerAnnotationInterface::Annotation.base" = type <{ ptr, i32 }>
%"class.grpc_core::CallTracerAnnotationInterface::Annotation" = type <{ ptr, i32, [4 x i8] }>

@_ZTVN9grpc_core14HttpAnnotationE = unnamed_addr constant { [5 x ptr] } { [5 x ptr] [ptr null, ptr @_ZTIN9grpc_core14HttpAnnotationE, ptr @_ZNK9grpc_core14HttpAnnotation8ToStringB5cxx11Ev, ptr @_ZN9grpc_core14HttpAnnotationD2Ev, ptr @_ZN9grpc_core14HttpAnnotationD0Ev] }, align 8

; Function Attrs: mustprogress nounwind uwtable
define linkonce_odr void @_ZN9grpc_core29CallTracerAnnotationInterface10AnnotationC2ENS0_14AnnotationTypeE(ptr noundef nonnull align 8 dereferenceable(12) %this, i32 noundef %type) unnamed_addr #4 comdat align 2 {
entry:
  %this.addr = alloca ptr, align 8
  %type.addr = alloca i32, align 4
  store ptr %this, ptr %this.addr, align 8
  store i32 %type, ptr %type.addr, align 4
  %this1 = load ptr, ptr %this.addr, align 8
  store ptr getelementptr inbounds ({ [5 x ptr] }, ptr @_ZTVN9grpc_core29CallTracerAnnotationInterface10AnnotationE, i32 0, i32 0, i32 2), ptr %this1, align 8
  %type_ = getelementptr inbounds %"class.grpc_core::CallTracerAnnotationInterface::Annotation", ptr %this1, i32 0, i32 1
  %0 = load i32, ptr %type.addr, align 4
  store i32 %0, ptr %type_, align 8
  ret void
}

; Function Attrs: mustprogress uwtable
define void @_ZN9grpc_core14HttpAnnotationC2ENS0_4TypeENS_9TimestampESt8optionalINS_6chttp220TransportFlowControl5StatsEES3_INS4_17StreamFlowControl5StatsEE(ptr noundef nonnull align 8 dereferenceable(168) %this, i8 noundef zeroext %type, i64 %time.coerce, ptr noundef byval(%"class.std::optional.20") align 8 %transport_stats, ptr noundef byval(%"class.std::optional.28") align 8 %stream_stats) unnamed_addr #5 align 2 {
entry:
  %time = alloca %"class.grpc_core::Timestamp", align 8
  %this.addr = alloca ptr, align 8
  %type.addr = alloca i8, align 1
  %coerce.dive = getelementptr inbounds %"class.grpc_core::Timestamp", ptr %time, i32 0, i32 0
  store i64 %time.coerce, ptr %coerce.dive, align 8
  store ptr %this, ptr %this.addr, align 8
  store i8 %type, ptr %type.addr, align 1
  %this1 = load ptr, ptr %this.addr, align 8
  call void @_ZN9grpc_core29CallTracerAnnotationInterface10AnnotationC2ENS0_14AnnotationTypeE(ptr noundef nonnull align 8 dereferenceable(12) %this1, i32 noundef 1)
  store ptr getelementptr inbounds ({ [5 x ptr] }, ptr @_ZTVN9grpc_core14HttpAnnotationE, i32 0, i32 0, i32 2), ptr %this1, align 8
  %type_ = getelementptr inbounds %"class.grpc_core::HttpAnnotation", ptr %this1, i32 0, i32 1
  %0 = load i8, ptr %type.addr, align 1
  store i8 %0, ptr %type_, align 4
  %time_ = getelementptr inbounds %"class.grpc_core::HttpAnnotation", ptr %this1, i32 0, i32 2
  call void @llvm.memcpy.p0.p0.i64(ptr align 8 %time_, ptr align 8 %time, i64 8, i1 false)
  %transport_stats_ = getelementptr inbounds %"class.grpc_core::HttpAnnotation", ptr %this1, i32 0, i32 3
  call void @llvm.memcpy.p0.p0.i64(ptr align 8 %transport_stats_, ptr align 8 %transport_stats, i64 96, i1 false)
  %stream_stats_ = getelementptr inbounds %"class.grpc_core::HttpAnnotation", ptr %this1, i32 0, i32 4
  call void @llvm.memcpy.p0.p0.i64(ptr align 8 %stream_stats_, ptr align 8 %stream_stats, i64 48, i1 false)
  ret void
}