; Function Attrs: mustprogress nofree norecurse nosync nounwind willreturn memory(argmem: readwrite) uwtable
define void @_ZN9grpc_core14HttpAnnotationC2ENS0_4TypeENS_9TimestampESt8optionalINS_6chttp220TransportFlowControl5StatsEES3_INS4_17StreamFlowControl5StatsEE(ptr nocapture noundef nonnull writeonly align 8 dereferenceable(168) %this, i8 noundef zeroext %type, i64 %time.coerce, ptr nocapture noundef readonly byval(%"class.std::optional.20") align 8 %transport_stats, ptr nocapture noundef readonly byval(%"class.std::optional.28") align 8 %stream_stats) unnamed_addr #8 align 2 {
entry:
  %type_.i = getelementptr inbounds i8, ptr %this, i64 8
  store i32 1, ptr %type_.i, align 8
  store ptr getelementptr inbounds ({ [5 x ptr] }, ptr @_ZTVN9grpc_core14HttpAnnotationE, i64 0, i32 0, i64 2), ptr %this, align 8
  %type_ = getelementptr inbounds i8, ptr %this, i64 12
  store i8 %type, ptr %type_, align 4
  %time_ = getelementptr inbounds i8, ptr %this, i64 16
  store i64 %time.coerce, ptr %time_, align 8
  %transport_stats_ = getelementptr inbounds i8, ptr %this, i64 24
  call void @llvm.memcpy.p0.p0.i64(ptr noundef nonnull align 8 dereferenceable(96) %transport_stats_, ptr noundef nonnull align 8 dereferenceable(96) %transport_stats, i64 96, i1 false)
  %stream_stats_ = getelementptr inbounds i8, ptr %this, i64 120
  call void @llvm.memcpy.p0.p0.i64(ptr noundef nonnull align 8 dereferenceable(48) %stream_stats_, ptr noundef nonnull align 8 dereferenceable(48) %stream_stats, i64 48, i1 false)
  ret void
}